target datalayout = "e-m:e-p270:32:32-p271:32:32-p272:64:64-i64:64-i128:128-f80:128-n8:16:32:64-S128"
target triple = "x86_64-pc-linux-gnu"

%"class.net::SpdyPrefixedBufferReader" = type { ptr, ptr, i64, i64 }

; Function Attrs: mustprogress nounwind uwtable
define void @_ZN3net24SpdyPrefixedBufferReaderC2EPKcmS2_m(ptr noundef nonnull align 8 dereferenceable(32) %0, ptr noundef %1, i64 noundef %2, ptr noundef %3, i64 noundef %4) unnamed_addr #0 align 2 {
  %6 = alloca ptr, align 8
  %7 = alloca ptr, align 8
  %8 = alloca i64, align 8
  %9 = alloca ptr, align 8
  %10 = alloca i64, align 8
  store ptr %0, ptr %6, align 8, !tbaa !3
  store ptr %1, ptr %7, align 8, !tbaa !8
  store i64 %2, ptr %8, align 8, !tbaa !10
  store ptr %3, ptr %9, align 8, !tbaa !8
  store i64 %4, ptr %10, align 8, !tbaa !10
  %11 = load ptr, ptr %6, align 8
  %12 = getelementptr inbounds nuw %"class.net::SpdyPrefixedBufferReader", ptr %11, i32 0, i32 0
  %13 = load ptr, ptr %7, align 8, !tbaa !8
  store ptr %13, ptr %12, align 8, !tbaa !12
  %14 = getelementptr inbounds nuw %"class.net::SpdyPrefixedBufferReader", ptr %11, i32 0, i32 1
  %15 = load ptr, ptr %9, align 8, !tbaa !8
  store ptr %15, ptr %14, align 8, !tbaa !14
  %16 = getelementptr inbounds nuw %"class.net::SpdyPrefixedBufferReader", ptr %11, i32 0, i32 2
  %17 = load i64, ptr %8, align 8, !tbaa !10
  store i64 %17, ptr %16, align 8, !tbaa !15
  %18 = getelementptr inbounds nuw %"class.net::SpdyPrefixedBufferReader", ptr %11, i32 0, i32 3
  %19 = load i64, ptr %10, align 8, !tbaa !10
  store i64 %19, ptr %18, align 8, !tbaa !16
  ret void
}